(dp0
Vengine
p1
S'pdflatex'
p2
sVpackages
p3
c__builtin__
set
p4
((lp5
Venumitem
p6
aVapacite
p7
aVbooktabs
p8
aVgeometry
p9
aVsetspace
p10
aVfancyhdr
p11
aVpdfpages
p12
aVurl
p13
aVtabularx
p14
aVcaption
p15
aVgraphicx
p16
aVragged2e
p17
aVepstopdf
p18
atp19
Rp20
sVfiles_with_guttermarks
p21
g4
((lp22
V/Users/dgaff/Code/reddit_random_walk/paper/./paper.tex
p23
aS'paper.tex'
p24
atp25
Rp26
sVsynctex
p27
I01
s.